target datalayout = "e-m:e-p270:32:32-p271:32:32-p272:64:64-i64:64-i128:128-f80:128-n8:16:32:64-S128"
target triple = "x86_64-pc-linux-gnu"

@proto_register_hsrp.ett = internal global [5 x ptr] [ptr @ett_hsrp, ptr @ett_hsrp2_group_state_tlv, ptr @ett_hsrp2_interface_state_tlv, ptr @ett_hsrp2_text_auth_tlv, ptr @ett_hsrp2_md5_auth_tlv], align 16
@.str.99 = private unnamed_addr constant [34 x i8] c"Cisco Hot Standby Router Protocol\00", align 1
@.str.100 = private unnamed_addr constant [5 x i8] c"HSRP\00", align 1
@.str.101 = private unnamed_addr constant [5 x i8] c"hsrp\00", align 1
@proto_hsrp = internal global i32 0, align 4
@hsrp_handle = internal global ptr null, align 8

; Function Attrs: null_pointer_is_valid sspstrong uwtable
define hidden void @proto_register_hsrp() #0 {
  %1 = alloca ptr, align 8
  call void @llvm.lifetime.start.p0(i64 8, ptr %1) #5
  %2 = call i32 @proto_register_protocol(ptr noundef @.str.99, ptr noundef @.str.100, ptr noundef @.str.101)
  store i32 %2, ptr @proto_hsrp, align 4
  %3 = load i32, ptr @proto_hsrp, align 4
  call void @proto_register_field_array(i32 noundef %3, ptr noundef @proto_register_hsrp.hf, i32 noundef 41)
  call void @proto_register_subtree_array(ptr noundef @proto_register_hsrp.ett, i32 noundef 5)
  %4 = load i32, ptr @proto_hsrp, align 4
  %5 = call ptr @expert_register_protocol(i32 noundef %4)
  store ptr %5, ptr %1, align 8
  %6 = load ptr, ptr %1, align 8
  call void @expert_register_field_array(ptr noundef %6, ptr noundef @proto_register_hsrp.ei, i32 noundef 1)
  %7 = load i32, ptr @proto_hsrp, align 4
  %8 = call ptr @register_dissector(ptr noundef @.str.101, ptr noundef @dissect_hsrp, i32 noundef %7)
  store ptr %8, ptr @hsrp_handle, align 8
  call void @llvm.lifetime.end.p0(i64 8, ptr %1) #5
  ret void
}